target datalayout = "e-m:e-p270:32:32-p271:32:32-p272:64:64-i64:64-i128:128-f80:128-n8:16:32:64-S128"
target triple = "x86_64-pc-linux-gnu"

%struct.APMExtraData = type { i32, i32, i32, i32, i32, %struct.APMState, [7 x i32], i32 }
%struct.APMState = type { i32, i32, i32, i32, i32, i32, i32 }

; Function Attrs: nounwind uwtable
define internal void @apm_parse_extradata(ptr noundef %0, ptr noundef %1) #0 {
  %3 = alloca ptr, align 8
  %4 = alloca ptr, align 8
  %5 = alloca i32, align 4
  store ptr %0, ptr %3, align 8, !tbaa !72
  store ptr %1, ptr %4, align 8, !tbaa !74
  %6 = load ptr, ptr %4, align 8, !tbaa !74
  %7 = getelementptr inbounds i8, ptr %6, i64 0
  %8 = load i32, ptr %7, align 1, !tbaa !13
  %9 = load ptr, ptr %3, align 8, !tbaa !72
  %10 = getelementptr inbounds nuw %struct.APMExtraData, ptr %9, i32 0, i32 0
  store i32 %8, ptr %10, align 4, !tbaa !54
  %11 = load ptr, ptr %4, align 8, !tbaa !74
  %12 = getelementptr inbounds i8, ptr %11, i64 4
  %13 = load i32, ptr %12, align 1, !tbaa !13
  %14 = load ptr, ptr %3, align 8, !tbaa !72
  %15 = getelementptr inbounds nuw %struct.APMExtraData, ptr %14, i32 0, i32 1
  store i32 %13, ptr %15, align 4, !tbaa !75
  %16 = load ptr, ptr %4, align 8, !tbaa !74
  %17 = getelementptr inbounds i8, ptr %16, i64 8
  %18 = load i32, ptr %17, align 1, !tbaa !13
  %19 = load ptr, ptr %3, align 8, !tbaa !72
  %20 = getelementptr inbounds nuw %struct.APMExtraData, ptr %19, i32 0, i32 2
  store i32 %18, ptr %20, align 4, !tbaa !61
  %21 = load ptr, ptr %4, align 8, !tbaa !74
  %22 = getelementptr inbounds i8, ptr %21, i64 12
  %23 = load i32, ptr %22, align 1, !tbaa !13
  %24 = load ptr, ptr %3, align 8, !tbaa !72
  %25 = getelementptr inbounds nuw %struct.APMExtraData, ptr %24, i32 0, i32 3
  store i32 %23, ptr %25, align 4, !tbaa !76
  %26 = load ptr, ptr %4, align 8, !tbaa !74
  %27 = getelementptr inbounds i8, ptr %26, i64 16
  %28 = load i32, ptr %27, align 1, !tbaa !13
  %29 = load ptr, ptr %3, align 8, !tbaa !72
  %30 = getelementptr inbounds nuw %struct.APMExtraData, ptr %29, i32 0, i32 4
  store i32 %28, ptr %30, align 4, !tbaa !77
  %31 = load ptr, ptr %4, align 8, !tbaa !74
  %32 = getelementptr inbounds i8, ptr %31, i64 20
  %33 = load i32, ptr %32, align 1, !tbaa !13
  %34 = load ptr, ptr %3, align 8, !tbaa !72
  %35 = getelementptr inbounds nuw %struct.APMExtraData, ptr %34, i32 0, i32 5
  %36 = getelementptr inbounds nuw %struct.APMState, ptr %35, i32 0, i32 0
  store i32 %33, ptr %36, align 4, !tbaa !58
  %37 = load ptr, ptr %4, align 8, !tbaa !74
  %38 = getelementptr inbounds i8, ptr %37, i64 24
  %39 = load i32, ptr %38, align 1, !tbaa !13
  %40 = load ptr, ptr %3, align 8, !tbaa !72
  %41 = getelementptr inbounds nuw %struct.APMExtraData, ptr %40, i32 0, i32 5
  %42 = getelementptr inbounds nuw %struct.APMState, ptr %41, i32 0, i32 1
  store i32 %39, ptr %42, align 4, !tbaa !78
  %43 = load ptr, ptr %4, align 8, !tbaa !74
  %44 = getelementptr inbounds i8, ptr %43, i64 28
  %45 = load i32, ptr %44, align 1, !tbaa !13
  %46 = load ptr, ptr %3, align 8, !tbaa !72
  %47 = getelementptr inbounds nuw %struct.APMExtraData, ptr %46, i32 0, i32 5
  %48 = getelementptr inbounds nuw %struct.APMState, ptr %47, i32 0, i32 2
  store i32 %45, ptr %48, align 4, !tbaa !79
  %49 = load ptr, ptr %4, align 8, !tbaa !74
  %50 = getelementptr inbounds i8, ptr %49, i64 32
  %51 = load i32, ptr %50, align 1, !tbaa !13
  %52 = load ptr, ptr %3, align 8, !tbaa !72
  %53 = getelementptr inbounds nuw %struct.APMExtraData, ptr %52, i32 0, i32 5
  %54 = getelementptr inbounds nuw %struct.APMState, ptr %53, i32 0, i32 3
  store i32 %51, ptr %54, align 4, !tbaa !80
  %55 = load ptr, ptr %4, align 8, !tbaa !74
  %56 = getelementptr inbounds i8, ptr %55, i64 36
  %57 = load i32, ptr %56, align 1, !tbaa !13
  %58 = load ptr, ptr %3, align 8, !tbaa !72
  %59 = getelementptr inbounds nuw %struct.APMExtraData, ptr %58, i32 0, i32 5
  %60 = getelementptr inbounds nuw %struct.APMState, ptr %59, i32 0, i32 4
  store i32 %57, ptr %60, align 4, !tbaa !81
  %61 = load ptr, ptr %4, align 8, !tbaa !74
  %62 = getelementptr inbounds i8, ptr %61, i64 40
  %63 = load i32, ptr %62, align 1, !tbaa !13
  %64 = load ptr, ptr %3, align 8, !tbaa !72
  %65 = getelementptr inbounds nuw %struct.APMExtraData, ptr %64, i32 0, i32 5
  %66 = getelementptr inbounds nuw %struct.APMState, ptr %65, i32 0, i32 5
  store i32 %63, ptr %66, align 4, !tbaa !82
  %67 = load ptr, ptr %4, align 8, !tbaa !74
  %68 = getelementptr inbounds i8, ptr %67, i64 44
  %69 = load i32, ptr %68, align 1, !tbaa !13
  %70 = load ptr, ptr %3, align 8, !tbaa !72
  %71 = getelementptr inbounds nuw %struct.APMExtraData, ptr %70, i32 0, i32 5
  %72 = getelementptr inbounds nuw %struct.APMState, ptr %71, i32 0, i32 6
  store i32 %69, ptr %72, align 4, !tbaa !83
  call void @llvm.lifetime.start.p0(i64 4, ptr %5) #6
  store i32 0, ptr %5, align 4, !tbaa !42
  br label %73

73:                                               ; preds = %91, %2
  %74 = load i32, ptr %5, align 4, !tbaa !42
  %75 = sext i32 %74 to i64
  %76 = icmp ult i64 %75, 7
  br i1 %76, label %78, label %77

77:                                               ; preds = %73
  call void @llvm.lifetime.end.p0(i64 4, ptr %5) #6
  br label %94

78:                                               ; preds = %73
  %79 = load ptr, ptr %4, align 8, !tbaa !74
  %80 = getelementptr inbounds i8, ptr %79, i64 48
  %81 = load i32, ptr %5, align 4, !tbaa !42
  %82 = mul nsw i32 %81, 4
  %83 = sext i32 %82 to i64
  %84 = getelementptr inbounds i8, ptr %80, i64 %83
  %85 = load i32, ptr %84, align 1, !tbaa !13
  %86 = load ptr, ptr %3, align 8, !tbaa !72
  %87 = getelementptr inbounds nuw %struct.APMExtraData, ptr %86, i32 0, i32 6
  %88 = load i32, ptr %5, align 4, !tbaa !42
  %89 = sext i32 %88 to i64
  %90 = getelementptr inbounds [7 x i32], ptr %87, i64 0, i64 %89
  store i32 %85, ptr %90, align 4, !tbaa !42
  br label %91

91:                                               ; preds = %78
  %92 = load i32, ptr %5, align 4, !tbaa !42
  %93 = add nsw i32 %92, 1
  store i32 %93, ptr %5, align 4, !tbaa !42
  br label %73, !llvm.loop !84

94:                                               ; preds = %77
  %95 = load ptr, ptr %4, align 8, !tbaa !74
  %96 = getelementptr inbounds i8, ptr %95, i64 76
  %97 = load i32, ptr %96, align 1, !tbaa !13
  %98 = load ptr, ptr %3, align 8, !tbaa !72
  %99 = getelementptr inbounds nuw %struct.APMExtraData, ptr %98, i32 0, i32 7
  store i32 %97, ptr %99, align 4, !tbaa !57
  ret void
}