; Function Attrs: nofree norecurse nosync nounwind memory(argmem: readwrite) uwtable
define internal fastcc void @apm_parse_extradata(ptr noundef nonnull writeonly captures(none) initializes((0, 48)) %0, ptr noundef nonnull readonly captures(none) %1) unnamed_addr #4 {
  %3 = load i32, ptr %1, align 1, !tbaa !11
  store i32 %3, ptr %0, align 4, !tbaa !45
  %4 = getelementptr inbounds nuw i8, ptr %1, i64 4
  %5 = load i32, ptr %4, align 1, !tbaa !11
  %6 = getelementptr inbounds nuw i8, ptr %0, i64 4
  store i32 %5, ptr %6, align 4, !tbaa !62
  %7 = getelementptr inbounds nuw i8, ptr %1, i64 8
  %8 = load i32, ptr %7, align 1, !tbaa !11
  %9 = getelementptr inbounds nuw i8, ptr %0, i64 8
  store i32 %8, ptr %9, align 4, !tbaa !51
  %10 = getelementptr inbounds nuw i8, ptr %1, i64 12
  %11 = load i32, ptr %10, align 1, !tbaa !11
  %12 = getelementptr inbounds nuw i8, ptr %0, i64 12
  store i32 %11, ptr %12, align 4, !tbaa !63
  %13 = getelementptr inbounds nuw i8, ptr %1, i64 16
  %14 = load i32, ptr %13, align 1, !tbaa !11
  %15 = getelementptr inbounds nuw i8, ptr %0, i64 16
  store i32 %14, ptr %15, align 4, !tbaa !64
  %16 = getelementptr inbounds nuw i8, ptr %1, i64 20
  %17 = load i32, ptr %16, align 1, !tbaa !11
  %18 = getelementptr inbounds nuw i8, ptr %0, i64 20
  store i32 %17, ptr %18, align 4, !tbaa !48
  %19 = getelementptr inbounds nuw i8, ptr %1, i64 24
  %20 = load i32, ptr %19, align 1, !tbaa !11
  %21 = getelementptr inbounds nuw i8, ptr %0, i64 24
  store i32 %20, ptr %21, align 4, !tbaa !65
  %22 = getelementptr inbounds nuw i8, ptr %1, i64 28
  %23 = load i32, ptr %22, align 1, !tbaa !11
  %24 = getelementptr inbounds nuw i8, ptr %0, i64 28
  store i32 %23, ptr %24, align 4, !tbaa !66
  %25 = getelementptr inbounds nuw i8, ptr %1, i64 32
  %26 = load i32, ptr %25, align 1, !tbaa !11
  %27 = getelementptr inbounds nuw i8, ptr %0, i64 32
  store i32 %26, ptr %27, align 4, !tbaa !67
  %28 = getelementptr inbounds nuw i8, ptr %1, i64 36
  %29 = load i32, ptr %28, align 1, !tbaa !11
  %30 = getelementptr inbounds nuw i8, ptr %0, i64 36
  store i32 %29, ptr %30, align 4, !tbaa !68
  %31 = getelementptr inbounds nuw i8, ptr %1, i64 40
  %32 = load i32, ptr %31, align 1, !tbaa !11
  %33 = getelementptr inbounds nuw i8, ptr %0, i64 40
  store i32 %32, ptr %33, align 4, !tbaa !69
  %34 = getelementptr inbounds nuw i8, ptr %1, i64 44
  %35 = load i32, ptr %34, align 1, !tbaa !11
  %36 = getelementptr inbounds nuw i8, ptr %0, i64 44
  store i32 %35, ptr %36, align 4, !tbaa !70
  %37 = getelementptr inbounds nuw i8, ptr %1, i64 48
  %38 = getelementptr inbounds nuw i8, ptr %0, i64 48
  br label %43

39:                                               ; preds = %43
  %40 = getelementptr inbounds nuw i8, ptr %1, i64 76
  %41 = load i32, ptr %40, align 1, !tbaa !11
  %42 = getelementptr inbounds nuw i8, ptr %0, i64 76
  store i32 %41, ptr %42, align 4, !tbaa !71
  ret void

43:                                               ; preds = %2, %43
  %indvars.iv = phi i64 [ 0, %2 ], [ %indvars.iv.next, %43 ]
  %44 = shl nuw nsw i64 %indvars.iv, 2
  %45 = getelementptr inbounds nuw i8, ptr %37, i64 %44
  %46 = load i32, ptr %45, align 1, !tbaa !11
  %47 = getelementptr inbounds nuw [7 x i32], ptr %38, i64 0, i64 %indvars.iv
  store i32 %46, ptr %47, align 4, !tbaa !72
  %indvars.iv.next = add nuw nsw i64 %indvars.iv, 1
  %exitcond.not = icmp eq i64 %indvars.iv.next, 7
  br i1 %exitcond.not, label %39, label %43, !llvm.loop !73
}